; ModuleID = 'source-C-CXX/36/98.c'
source_filename = "source-C-CXX/36/98.c"
target datalayout = "e-m:e-p270:32:32-p271:32:32-p272:64:64-i64:64-f80:128-n8:16:32:64-S128"
target triple = "x86_64-pc-linux-gnu"

@.str = private unnamed_addr constant [3 x i8] c"%d\00", align 1
@.str.1 = private unnamed_addr constant [3 x i8] c"%s\00", align 1
@.str.3 = private unnamed_addr constant [4 x i8] c"%c\0A\00", align 1
@str = private unnamed_addr constant [3 x i8] c"no\00", align 1

; Function Attrs: nofree nounwind sspstrong uwtable
define dso_local void @main() local_unnamed_addr #0 {
  %1 = alloca i32, align 4
  %2 = alloca [100 x i8], align 16
  %3 = alloca [100000 x i8], align 16
  %4 = bitcast i32* %1 to i8*
  call void @llvm.lifetime.start.p0i8(i64 4, i8* nonnull %4) #6
  %5 = getelementptr inbounds [100 x i8], [100 x i8]* %2, i64 0, i64 0
  call void @llvm.lifetime.start.p0i8(i64 100, i8* nonnull %5) #6
  call void @llvm.memset.p0i8.i64(i8* noundef nonnull align 16 dereferenceable(100) %5, i8 0, i64 100, i1 false)
  %6 = getelementptr inbounds [100000 x i8], [100000 x i8]* %3, i64 0, i64 0
  call void @llvm.lifetime.start.p0i8(i64 100000, i8* nonnull %6) #6
  call void @llvm.memset.p0i8.i64(i8* noundef nonnull align 16 dereferenceable(100000) %6, i8 0, i64 100000, i1 false)
  %7 = call i32 (i8*, ...) @__isoc99_scanf(i8* getelementptr inbounds ([3 x i8], [3 x i8]* @.str, i64 0, i64 0), i32* nonnull %1)
  %8 = load i32, i32* %1, align 4, !tbaa !5
  %9 = icmp sgt i32 %8, 0
  br i1 %9, label %13, label %10

10:                                               ; preds = %40, %0
  %11 = call i64 @strlen(i8* noundef nonnull %5) #7
  %12 = icmp eq i64 %11, 0
  br i1 %12, label %60, label %47

13:                                               ; preds = %0, %40
  %14 = phi i64 [ %43, %40 ], [ 0, %0 ]
  %15 = call i32 (i8*, ...) @__isoc99_scanf(i8* getelementptr inbounds ([3 x i8], [3 x i8]* @.str.1, i64 0, i64 0), i8* nonnull %6)
  %16 = load i8, i8* %6, align 16, !tbaa !9
  %17 = icmp eq i8 %16, 0
  br i1 %17, label %40, label %18

18:                                               ; preds = %13, %35
  %19 = phi i64 [ %36, %35 ], [ 0, %13 ]
  %20 = phi i8 [ %38, %35 ], [ %16, %13 ]
  br label %21

21:                                               ; preds = %18, %27
  %22 = phi i64 [ 0, %18 ], [ %29, %27 ]
  %23 = phi i32 [ 0, %18 ], [ %31, %27 ]
  %24 = getelementptr inbounds [100000 x i8], [100000 x i8]* %3, i64 0, i64 %22
  %25 = load i8, i8* %24, align 1, !tbaa !9
  %26 = icmp eq i8 %25, 0
  br i1 %26, label %33, label %27

27:                                               ; preds = %21
  %28 = icmp eq i8 %20, %25
  %29 = add nuw i64 %22, 1
  %30 = zext i1 %28 to i32
  %31 = add nuw nsw i32 %23, %30
  %32 = icmp eq i32 %31, 2
  br i1 %32, label %35, label %21

33:                                               ; preds = %21
  %34 = icmp eq i32 %23, 1
  br i1 %34, label %40, label %35

35:                                               ; preds = %27, %33
  %36 = add nuw i64 %19, 1
  %37 = getelementptr inbounds [100000 x i8], [100000 x i8]* %3, i64 0, i64 %36
  %38 = load i8, i8* %37, align 1, !tbaa !9
  %39 = icmp eq i8 %38, 0
  br i1 %39, label %40, label %18, !llvm.loop !10

40:                                               ; preds = %35, %33, %13
  %41 = phi i8 [ 36, %13 ], [ %20, %33 ], [ 36, %35 ]
  %42 = getelementptr inbounds [100 x i8], [100 x i8]* %2, i64 0, i64 %14
  store i8 %41, i8* %42, align 1, !tbaa !9
  %43 = add nuw nsw i64 %14, 1
  %44 = load i32, i32* %1, align 4, !tbaa !5
  %45 = sext i32 %44 to i64
  %46 = icmp slt i64 %43, %45
  br i1 %46, label %13, label %10, !llvm.loop !12

47:                                               ; preds = %10, %57
  %48 = phi i64 [ %58, %57 ], [ 0, %10 ]
  %49 = getelementptr inbounds [100 x i8], [100 x i8]* %2, i64 0, i64 %48
  %50 = load i8, i8* %49, align 1, !tbaa !9
  %51 = icmp eq i8 %50, 36
  br i1 %51, label %52, label %54

52:                                               ; preds = %47
  %53 = call i32 @puts(i8* nonnull dereferenceable(1) getelementptr inbounds ([3 x i8], [3 x i8]* @str, i64 0, i64 0))
  br label %57

54:                                               ; preds = %47
  %55 = sext i8 %50 to i32
  %56 = call i32 (i8*, ...) @printf(i8* nonnull dereferenceable(1) getelementptr inbounds ([4 x i8], [4 x i8]* @.str.3, i64 0, i64 0), i32 %55)
  br label %57

57:                                               ; preds = %52, %54
  %58 = add nuw i64 %48, 1
  %59 = icmp eq i64 %58, %11
  br i1 %59, label %60, label %47, !llvm.loop !13

60:                                               ; preds = %57, %10
  call void @llvm.lifetime.end.p0i8(i64 100000, i8* nonnull %6) #6
  call void @llvm.lifetime.end.p0i8(i64 100, i8* nonnull %5) #6
  call void @llvm.lifetime.end.p0i8(i64 4, i8* nonnull %4) #6
  ret void
}

; Function Attrs: argmemonly mustprogress nofree nosync nounwind willreturn
declare void @llvm.lifetime.start.p0i8(i64 immarg, i8* nocapture) #1

; Function Attrs: argmemonly mustprogress nofree nounwind willreturn writeonly
declare void @llvm.memset.p0i8.i64(i8* nocapture writeonly, i8, i64, i1 immarg) #2

; Function Attrs: nofree nounwind
declare noundef i32 @__isoc99_scanf(i8* nocapture noundef readonly, ...) local_unnamed_addr #3

; Function Attrs: argmemonly mustprogress nofree nounwind readonly willreturn
declare i64 @strlen(i8* nocapture) local_unnamed_addr #4

; Function Attrs: nofree nounwind
declare noundef i32 @printf(i8* nocapture noundef readonly, ...) local_unnamed_addr #3

; Function Attrs: argmemonly mustprogress nofree nosync nounwind willreturn
declare void @llvm.lifetime.end.p0i8(i64 immarg, i8* nocapture) #1

; Function Attrs: nofree nounwind
declare noundef i32 @puts(i8* nocapture noundef readonly) local_unnamed_addr #5


!llvm.module.flags = !{!0, !1, !2, !3}
!llvm.ident = !{!4}

!0 = !{i32 1, !"wchar_size", i32 4}
!1 = !{i32 7, !"PIC Level", i32 2}
!2 = !{i32 7, !"PIE Level", i32 2}
!3 = !{i32 7, !"uwtable", i32 1}
!4 = !{!"clang version 13.0.0"}
!5 = !{!6, !6, i64 0}
!6 = !{!"int", !7, i64 0}
!7 = !{!"omnipotent char", !8, i64 0}
!8 = !{!"Simple C/C++ TBAA"}
!9 = !{!7, !7, i64 0}
!10 = distinct !{!10, !11}
!11 = !{!"llvm.loop.mustprogress"}
!12 = distinct !{!12, !11}
!13 = distinct !{!13, !11}
